target datalayout = "e-m:e-p270:32:32-p271:32:32-p272:64:64-i64:64-i128:128-f80:128-n8:16:32:64-S128"
target triple = "x86_64-pc-linux-gnu"

%struct.ProbContext = type { [4 x [9 x i8]], [10 x [9 x i8]], [4 x [2 x i8]], [7 x [3 x i8]], [4 x i8], [5 x i8], [5 x [2 x i8]], [5 x i8], [2 x [3 x i8]], [2 x [2 x i8]], [2 x i8], [3 x i8], [3 x i8], [2 x %struct.anon.8], [4 x [4 x [3 x i8]]] }
%struct.anon.8 = type { i8, [10 x i8], i8, [10 x i8], [2 x [3 x i8]], [3 x i8], i8, i8 }
%struct.AVCodecContext = type { ptr, i32, i32, ptr, i32, i32, ptr, ptr, ptr, i64, i32, i32, ptr, i32, %struct.AVRational, %struct.AVRational, %struct.AVRational, i32, i32, i32, i32, i32, %struct.AVRational, i32, i32, i32, i32, i32, i32, i32, i32, i32, i32, i32, ptr, ptr, i32, float, float, float, float, float, float, float, float, float, i32, i32, i32, i32, i32, i32, i32, i32, i32, i32, i32, i32, ptr, ptr, ptr, i32, i32, i32, i32, i32, i32, i32, i32, i32, i32, %struct.AVChannelLayout, i32, i32, i32, i32, i32, i32, i32, i32, ptr, i32, i32, i32, float, float, i32, i32, i32, i32, i32, ptr, i64, i64, float, float, i32, i32, ptr, ptr, i32, i32, i32, i32, i32, ptr, ptr, ptr, ptr, i32, i32, [8 x i64], i32, i32, i32, i32, i32, i32, i32, ptr, ptr, i32, i32, i32, i32, i32, i32, i32, i32, i32, i32, ptr, ptr, i32, i32, ptr, ptr, ptr, ptr, i32, i32, i64, i32, i32, i64, ptr, i64, ptr, i32, ptr, i32 }
%struct.AVRational = type { i32, i32 }
%struct.AVChannelLayout = type { i32, i32, %union.anon.0, ptr }
%union.anon.0 = type { i64 }
%struct.VP9Context = type { %struct.VP9SharedContext, ptr, %struct.VP9DSPContext, %struct.VideoDSPContext, %struct.GetBitContext, %struct.VPXRangeCoder, i32, i32, %union.pthread_mutex_t, %union.pthread_cond_t, ptr, i32, i8, i8, i8, i8, i8, i8, i32, i32, i32, i32, i32, i32, i32, i32, i32, [8 x %struct.ProgressFrame], %struct.anon.6, [4 x %struct.anon.7], %struct.anon.9, ptr, ptr, ptr, [2 x ptr], ptr, ptr, ptr, ptr, ptr, ptr, ptr, ptr, [3 x ptr], ptr, i32, [3 x [2 x i16]], [3 x [2 x i8]], ptr, i32 }
%struct.VP9SharedContext = type { %struct.VP9BitstreamHeader, [8 x %struct.ProgressFrame], [4 x %struct.VP9Frame] }
%struct.VP9BitstreamHeader = type { i8, i8, i8, i8, i8, i8, i8, i8, i8, i32, i8, i8, i8, i8, i8, [3 x i8], [3 x i8], i8, [2 x i8], %struct.anon, %struct.anon.1, i8, i8, i8, i8, i8, %struct.anon.2, i32, i32, %struct.anon.4, i32, i32 }
%struct.anon = type { i8, i8 }
%struct.anon.1 = type { i8, i8, [2 x i8], [4 x i8] }
%struct.anon.2 = type { i8, i8, i8, i8, [7 x i8], [3 x i8], [8 x %struct.anon.3] }
%struct.anon.3 = type { i8, i8, i8, i8, i8, i16, i8, [2 x [2 x i16]], [4 x [2 x i8]] }
%struct.anon.4 = type { i32, i32, i32, i32 }
%struct.VP9Frame = type { %struct.ProgressFrame, ptr, ptr, ptr, i32, ptr }
%struct.ProgressFrame = type { ptr, ptr }
%struct.VP9DSPContext = type { [4 x [15 x ptr]], [5 x [4 x ptr]], [3 x [2 x ptr]], [2 x ptr], [2 x [2 x [2 x ptr]]], [5 x [4 x [2 x [2 x [2 x ptr]]]]], [5 x [4 x [2 x ptr]]] }
%struct.VideoDSPContext = type { ptr, ptr }
%struct.GetBitContext = type { ptr, ptr, i32, i32, i32 }
%struct.VPXRangeCoder = type { i32, i32, ptr, ptr, i32, i32 }
%union.pthread_mutex_t = type { %struct.__pthread_mutex_s }
%struct.__pthread_mutex_s = type { i32, i32, i32, i32, i32, i16, i16, %struct.__pthread_internal_list }
%struct.__pthread_internal_list = type { ptr, ptr }
%union.pthread_cond_t = type { %struct.__pthread_cond_s }
%struct.__pthread_cond_s = type { %union.__atomic_wide_counter, %union.__atomic_wide_counter, [2 x i32], [2 x i32], i32, i32, [2 x i32] }
%union.__atomic_wide_counter = type { i64 }
%struct.anon.6 = type { [64 x i8], [64 x i8] }
%struct.anon.7 = type { %struct.ProbContext, [4 x [2 x [2 x [6 x [6 x [3 x i8]]]]]] }
%struct.anon.9 = type { %struct.ProbContext, [4 x [2 x [2 x [6 x [6 x [11 x i8]]]]]] }

@vp9_context_offsets = internal constant [5 x i32] [i32 3216, i32 3120, i32 0, i32 3160, i32 0], align 16

; Function Attrs: cold nounwind optsize uwtable
define internal i32 @vp9_decode_init(ptr noundef %0) #1 {
  %2 = alloca i32, align 4
  %3 = alloca ptr, align 8
  %4 = alloca ptr, align 8
  %5 = alloca i32, align 4
  %6 = alloca i32, align 4
  store ptr %0, ptr %3, align 8, !tbaa !4
  call void @llvm.lifetime.start.p0(i64 8, ptr %4) #11
  %7 = load ptr, ptr %3, align 8, !tbaa !4
  %8 = getelementptr inbounds nuw %struct.AVCodecContext, ptr %7, i32 0, i32 6
  %9 = load ptr, ptr %8, align 8, !tbaa !9
  store ptr %9, ptr %4, align 8, !tbaa !29
  call void @llvm.lifetime.start.p0(i64 4, ptr %5) #11
  %10 = load ptr, ptr %4, align 8, !tbaa !29
  %11 = getelementptr inbounds nuw %struct.VP9Context, ptr %10, i32 0, i32 14
  store i8 0, ptr %11, align 2, !tbaa !70
  %12 = load ptr, ptr %4, align 8, !tbaa !29
  %13 = getelementptr inbounds nuw %struct.VP9Context, ptr %12, i32 0, i32 0
  %14 = getelementptr inbounds nuw %struct.VP9SharedContext, ptr %13, i32 0, i32 0
  %15 = getelementptr inbounds nuw %struct.VP9BitstreamHeader, ptr %14, i32 0, i32 19
  %16 = getelementptr inbounds nuw %struct.anon, ptr %15, i32 0, i32 1
  store i8 -1, ptr %16, align 1, !tbaa !71
  %17 = load ptr, ptr %3, align 8, !tbaa !4
  %18 = getelementptr inbounds nuw %struct.AVCodecContext, ptr %17, i32 0, i32 118
  %19 = load i32, ptr %18, align 8, !tbaa !72
  %20 = and i32 %19, 2
  %21 = icmp ne i32 %20, 0
  br i1 %21, label %22, label %30

22:                                               ; preds = %1
  %23 = load ptr, ptr %4, align 8, !tbaa !29
  %24 = call i32 @ff_pthread_init(ptr noundef %23, ptr noundef @vp9_context_offsets)
  store i32 %24, ptr %5, align 4, !tbaa !31
  %25 = load i32, ptr %5, align 4, !tbaa !31
  %26 = icmp slt i32 %25, 0
  br i1 %26, label %27, label %29

27:                                               ; preds = %22
  %28 = load i32, ptr %5, align 4, !tbaa !31
  store i32 %28, ptr %2, align 4
  store i32 1, ptr %6, align 4
  br label %31

29:                                               ; preds = %22
  br label %30

30:                                               ; preds = %29, %1
  store i32 0, ptr %2, align 4
  store i32 1, ptr %6, align 4
  br label %31

31:                                               ; preds = %30, %27
  call void @llvm.lifetime.end.p0(i64 4, ptr %5) #11
  call void @llvm.lifetime.end.p0(i64 8, ptr %4) #11
  %32 = load i32, ptr %2, align 4
  ret i32 %32
}