; Function Attrs: cold nounwind optsize uwtable
define internal range(i32 -2147483648, 1) i32 @vp9_decode_init(ptr noundef readonly captures(none) %0) #1 {
  %2 = getelementptr inbounds nuw i8, ptr %0, i64 32
  %3 = load ptr, ptr %2, align 8, !tbaa !4
  %4 = getelementptr inbounds nuw i8, ptr %3, i64 3222
  store i8 0, ptr %4, align 2, !tbaa !75
  %5 = getelementptr inbounds nuw i8, ptr %3, i64 31
  store i8 -1, ptr %5, align 1, !tbaa !76
  %6 = getelementptr inbounds nuw i8, ptr %0, i64 664
  %7 = load i32, ptr %6, align 8, !tbaa !77
  %8 = and i32 %7, 2
  %.not = icmp eq i32 %8, 0
  br i1 %.not, label %12, label %9

9:                                                ; preds = %1
  %10 = tail call i32 @ff_pthread_init(ptr noundef nonnull %3, ptr noundef nonnull @vp9_context_offsets) #12
  %11 = icmp slt i32 %10, 0
  br i1 %11, label %13, label %12

12:                                               ; preds = %9, %1
  br label %13

13:                                               ; preds = %9, %12
  %.0 = phi i32 [ 0, %12 ], [ %10, %9 ]
  ret i32 %.0
}